target datalayout = "e-m:e-p270:32:32-p271:32:32-p272:64:64-i64:64-i128:128-f80:128-n8:16:32:64-S128"
target triple = "x86_64-pc-linux-gnu"

%struct.DES_ks = type { [16 x %union.anon] }
%union.anon = type { [2 x i32] }

@.str.24 = private unnamed_addr constant [26 x i8] c"../openssl/test/destest.c\00", align 1
@cfb_cipher8 = internal global [24 x i8] c"\F3\1F\DA\07\01\14b\EE\18\7FC\D8\0A|\D9\B5\B0\D2\90\DAn[\9A\87", align 16
@cfb_key = internal global [8 x i8] c"\01#Eg\89\AB\CD\EF", align 1
@cfb_tmp = internal global [8 x i8] zeroinitializer, align 1
@cfb_iv = internal global [8 x i8] c"\124Vx\90\AB\CD\EF", align 1
@plain = internal global [24 x i8] c"Now is the time for all ", align 16
@cfb_buf1 = internal global [40 x i8] zeroinitializer, align 16
@.str.47 = private unnamed_addr constant [9 x i8] c"cfb_buf1\00", align 1
@cfb_buf2 = internal global [40 x i8] zeroinitializer, align 16
@.str.48 = private unnamed_addr constant [6 x i8] c"plain\00", align 1
@.str.49 = private unnamed_addr constant [9 x i8] c"cfb_buf2\00", align 1
@cfb_cipher64 = internal global [24 x i8] c"\F3\09bI\C7\F4nQ\A6\9E\83\9B\1A\92\F7\84\03Fq3\89\8E\A6\22", align 16
@.str.50 = private unnamed_addr constant [13 x i8] c"cfb_cipher64\00", align 1
@.str.51 = private unnamed_addr constant [12 x i8] c"cfb_cipher8\00", align 1

; Function Attrs: nounwind uwtable
define internal i32 @test_des_cfb64() #0 {
  %1 = alloca i32, align 4
  %2 = alloca %struct.DES_ks, align 4
  %3 = alloca i32, align 4
  %4 = alloca i64, align 8
  %5 = alloca i32, align 4
  call void @llvm.lifetime.start.p0(i64 128, ptr %2) #6
  call void @llvm.lifetime.start.p0(i64 4, ptr %3) #6
  call void @llvm.lifetime.start.p0(i64 8, ptr %4) #6
  %6 = call i32 @cfb_test(i32 noundef 64, ptr noundef @cfb_cipher64)
  %7 = icmp ne i32 %6, 0
  br i1 %7, label %9, label %8

8:                                                ; preds = %0
  store i32 0, ptr %1, align 4
  store i32 1, ptr %5, align 4
  br label %48

9:                                                ; preds = %0
  %10 = call i32 @DES_set_key_checked(ptr noundef @cfb_key, ptr noundef %2)
  call void @llvm.memcpy.p0.p0.i64(ptr align 1 @cfb_tmp, ptr align 1 @cfb_iv, i64 8, i1 false)
  store i32 0, ptr %3, align 4, !tbaa !4
  call void @DES_cfb64_encrypt(ptr noundef @plain, ptr noundef @cfb_buf1, i64 noundef 12, ptr noundef %2, ptr noundef @cfb_tmp, ptr noundef %3, i32 noundef 1)
  call void @DES_cfb64_encrypt(ptr noundef getelementptr inbounds ([24 x i8], ptr @plain, i64 0, i64 12), ptr noundef getelementptr inbounds ([40 x i8], ptr @cfb_buf1, i64 0, i64 12), i64 noundef 12, ptr noundef %2, ptr noundef @cfb_tmp, ptr noundef %3, i32 noundef 1)
  %11 = call i32 @test_mem_eq(ptr noundef @.str.24, i32 noundef 568, ptr noundef @.str.50, ptr noundef @.str.47, ptr noundef @cfb_cipher64, i64 noundef 24, ptr noundef @cfb_buf1, i64 noundef 24)
  %12 = icmp ne i32 %11, 0
  br i1 %12, label %14, label %13

13:                                               ; preds = %9
  store i32 0, ptr %1, align 4
  store i32 1, ptr %5, align 4
  br label %48

14:                                               ; preds = %9
  call void @llvm.memcpy.p0.p0.i64(ptr align 1 @cfb_tmp, ptr align 1 @cfb_iv, i64 8, i1 false)
  store i32 0, ptr %3, align 4, !tbaa !4
  call void @DES_cfb64_encrypt(ptr noundef @cfb_buf1, ptr noundef @cfb_buf2, i64 noundef 17, ptr noundef %2, ptr noundef @cfb_tmp, ptr noundef %3, i32 noundef 0)
  call void @DES_cfb64_encrypt(ptr noundef getelementptr inbounds ([40 x i8], ptr @cfb_buf1, i64 0, i64 17), ptr noundef getelementptr inbounds ([40 x i8], ptr @cfb_buf2, i64 0, i64 17), i64 noundef 7, ptr noundef %2, ptr noundef @cfb_tmp, ptr noundef %3, i32 noundef 0)
  %15 = call i32 @test_mem_eq(ptr noundef @.str.24, i32 noundef 575, ptr noundef @.str.48, ptr noundef @.str.49, ptr noundef @plain, i64 noundef 24, ptr noundef @cfb_buf2, i64 noundef 24)
  %16 = icmp ne i32 %15, 0
  br i1 %16, label %18, label %17

17:                                               ; preds = %14
  store i32 0, ptr %1, align 4
  store i32 1, ptr %5, align 4
  br label %48

18:                                               ; preds = %14
  call void @llvm.memcpy.p0.p0.i64(ptr align 1 @cfb_tmp, ptr align 1 @cfb_iv, i64 8, i1 false)
  store i64 0, ptr %4, align 8, !tbaa !8
  br label %19

19:                                               ; preds = %27, %18
  %20 = load i64, ptr %4, align 8, !tbaa !8
  %21 = icmp ult i64 %20, 24
  br i1 %21, label %22, label %30

22:                                               ; preds = %19
  %23 = load i64, ptr %4, align 8, !tbaa !8
  %24 = getelementptr inbounds nuw [24 x i8], ptr @plain, i64 0, i64 %23
  %25 = load i64, ptr %4, align 8, !tbaa !8
  %26 = getelementptr inbounds nuw [40 x i8], ptr @cfb_buf1, i64 0, i64 %25
  call void @DES_cfb_encrypt(ptr noundef %24, ptr noundef %26, i32 noundef 8, i64 noundef 1, ptr noundef %2, ptr noundef @cfb_tmp, i32 noundef 1)
  br label %27

27:                                               ; preds = %22
  %28 = load i64, ptr %4, align 8, !tbaa !8
  %29 = add i64 %28, 1
  store i64 %29, ptr %4, align 8, !tbaa !8
  br label %19, !llvm.loop !10

30:                                               ; preds = %19
  %31 = call i32 @test_mem_eq(ptr noundef @.str.24, i32 noundef 582, ptr noundef @.str.51, ptr noundef @.str.47, ptr noundef @cfb_cipher8, i64 noundef 24, ptr noundef @cfb_buf1, i64 noundef 24)
  %32 = icmp ne i32 %31, 0
  br i1 %32, label %34, label %33

33:                                               ; preds = %30
  store i32 0, ptr %1, align 4
  store i32 1, ptr %5, align 4
  br label %48

34:                                               ; preds = %30
  call void @llvm.memcpy.p0.p0.i64(ptr align 1 @cfb_tmp, ptr align 1 @cfb_iv, i64 8, i1 false)
  store i64 0, ptr %4, align 8, !tbaa !8
  br label %35

35:                                               ; preds = %43, %34
  %36 = load i64, ptr %4, align 8, !tbaa !8
  %37 = icmp ult i64 %36, 24
  br i1 %37, label %38, label %46

38:                                               ; preds = %35
  %39 = load i64, ptr %4, align 8, !tbaa !8
  %40 = getelementptr inbounds nuw [40 x i8], ptr @cfb_buf1, i64 0, i64 %39
  %41 = load i64, ptr %4, align 8, !tbaa !8
  %42 = getelementptr inbounds nuw [40 x i8], ptr @cfb_buf2, i64 0, i64 %41
  call void @DES_cfb_encrypt(ptr noundef %40, ptr noundef %42, i32 noundef 8, i64 noundef 1, ptr noundef %2, ptr noundef @cfb_tmp, i32 noundef 0)
  br label %43

43:                                               ; preds = %38
  %44 = load i64, ptr %4, align 8, !tbaa !8
  %45 = add i64 %44, 1
  store i64 %45, ptr %4, align 8, !tbaa !8
  br label %35, !llvm.loop !12

46:                                               ; preds = %35
  %47 = call i32 @test_mem_eq(ptr noundef @.str.24, i32 noundef 589, ptr noundef @.str.48, ptr noundef @.str.49, ptr noundef @plain, i64 noundef 24, ptr noundef @cfb_buf2, i64 noundef 24)
  store i32 %47, ptr %1, align 4
  store i32 1, ptr %5, align 4
  br label %48

48:                                               ; preds = %46, %33, %17, %13, %8
  call void @llvm.lifetime.end.p0(i64 8, ptr %4) #6
  call void @llvm.lifetime.end.p0(i64 4, ptr %3) #6
  call void @llvm.lifetime.end.p0(i64 128, ptr %2) #6
  %49 = load i32, ptr %1, align 4
  ret i32 %49
}