; Function Attrs: nounwind uwtable
define internal i32 @test_des_cfb64() #0 {
  %1 = alloca %struct.DES_ks, align 4
  %2 = alloca i32, align 4
  call void @llvm.lifetime.start.p0(i64 128, ptr nonnull %1) #6
  call void @llvm.lifetime.start.p0(i64 4, ptr nonnull %2) #6
  %3 = tail call fastcc i32 @cfb_test(i32 noundef 64, ptr noundef nonnull @cfb_cipher64)
  %.not = icmp eq i32 %3, 0
  br i1 %.not, label %23, label %4

4:                                                ; preds = %0
  %5 = call i32 @DES_set_key_checked(ptr noundef nonnull @cfb_key, ptr noundef nonnull %1) #6
  store i64 -1167088091436534766, ptr @cfb_tmp, align 8
  store i32 0, ptr %2, align 4, !tbaa !9
  call void @DES_cfb64_encrypt(ptr noundef nonnull @plain, ptr noundef nonnull @cfb_buf1, i64 noundef 12, ptr noundef nonnull %1, ptr noundef nonnull @cfb_tmp, ptr noundef nonnull %2, i32 noundef 1) #6
  call void @DES_cfb64_encrypt(ptr noundef nonnull getelementptr inbounds nuw (i8, ptr @plain, i64 12), ptr noundef nonnull getelementptr inbounds nuw (i8, ptr @cfb_buf1, i64 12), i64 noundef 12, ptr noundef nonnull %1, ptr noundef nonnull @cfb_tmp, ptr noundef nonnull %2, i32 noundef 1) #6
  %6 = call i32 @test_mem_eq(ptr noundef nonnull @.str.24, i32 noundef 568, ptr noundef nonnull @.str.50, ptr noundef nonnull @.str.47, ptr noundef nonnull @cfb_cipher64, i64 noundef 24, ptr noundef nonnull @cfb_buf1, i64 noundef 24) #6
  %.not10 = icmp eq i32 %6, 0
  br i1 %.not10, label %23, label %7

7:                                                ; preds = %4
  store i64 -1167088091436534766, ptr @cfb_tmp, align 8
  store i32 0, ptr %2, align 4, !tbaa !9
  call void @DES_cfb64_encrypt(ptr noundef nonnull @cfb_buf1, ptr noundef nonnull @cfb_buf2, i64 noundef 17, ptr noundef nonnull %1, ptr noundef nonnull @cfb_tmp, ptr noundef nonnull %2, i32 noundef 0) #6
  call void @DES_cfb64_encrypt(ptr noundef nonnull getelementptr inbounds nuw (i8, ptr @cfb_buf1, i64 17), ptr noundef nonnull getelementptr inbounds nuw (i8, ptr @cfb_buf2, i64 17), i64 noundef 7, ptr noundef nonnull %1, ptr noundef nonnull @cfb_tmp, ptr noundef nonnull %2, i32 noundef 0) #6
  %8 = call i32 @test_mem_eq(ptr noundef nonnull @.str.24, i32 noundef 575, ptr noundef nonnull @.str.48, ptr noundef nonnull @.str.49, ptr noundef nonnull @plain, i64 noundef 24, ptr noundef nonnull @cfb_buf2, i64 noundef 24) #6
  %.not11 = icmp eq i32 %8, 0
  br i1 %.not11, label %23, label %9

9:                                                ; preds = %7
  store i64 -1167088091436534766, ptr @cfb_tmp, align 8
  br label %10

10:                                               ; preds = %9, %10
  %.013 = phi i64 [ 0, %9 ], [ %13, %10 ]
  %11 = getelementptr inbounds nuw [24 x i8], ptr @plain, i64 0, i64 %.013
  %12 = getelementptr inbounds nuw [40 x i8], ptr @cfb_buf1, i64 0, i64 %.013
  call void @DES_cfb_encrypt(ptr noundef nonnull %11, ptr noundef nonnull %12, i32 noundef 8, i64 noundef 1, ptr noundef nonnull %1, ptr noundef nonnull @cfb_tmp, i32 noundef 1) #6
  %13 = add nuw nsw i64 %.013, 1
  %exitcond.not = icmp eq i64 %13, 24
  br i1 %exitcond.not, label %14, label %10, !llvm.loop !11

14:                                               ; preds = %10
  %15 = call i32 @test_mem_eq(ptr noundef nonnull @.str.24, i32 noundef 582, ptr noundef nonnull @.str.51, ptr noundef nonnull @.str.47, ptr noundef nonnull @cfb_cipher8, i64 noundef 24, ptr noundef nonnull @cfb_buf1, i64 noundef 24) #6
  %.not12 = icmp eq i32 %15, 0
  br i1 %.not12, label %23, label %16

16:                                               ; preds = %14
  store i64 -1167088091436534766, ptr @cfb_tmp, align 8
  br label %17

17:                                               ; preds = %16, %17
  %.114 = phi i64 [ 0, %16 ], [ %20, %17 ]
  %18 = getelementptr inbounds nuw [40 x i8], ptr @cfb_buf1, i64 0, i64 %.114
  %19 = getelementptr inbounds nuw [40 x i8], ptr @cfb_buf2, i64 0, i64 %.114
  call void @DES_cfb_encrypt(ptr noundef nonnull %18, ptr noundef nonnull %19, i32 noundef 8, i64 noundef 1, ptr noundef nonnull %1, ptr noundef nonnull @cfb_tmp, i32 noundef 0) #6
  %20 = add nuw nsw i64 %.114, 1
  %exitcond15.not = icmp eq i64 %20, 24
  br i1 %exitcond15.not, label %21, label %17, !llvm.loop !12

21:                                               ; preds = %17
  %22 = call i32 @test_mem_eq(ptr noundef nonnull @.str.24, i32 noundef 589, ptr noundef nonnull @.str.48, ptr noundef nonnull @.str.49, ptr noundef nonnull @plain, i64 noundef 24, ptr noundef nonnull @cfb_buf2, i64 noundef 24) #6
  br label %23

23:                                               ; preds = %14, %7, %4, %0, %21
  %.09 = phi i32 [ %22, %21 ], [ 0, %0 ], [ 0, %4 ], [ 0, %7 ], [ 0, %14 ]
  call void @llvm.lifetime.end.p0(i64 4, ptr nonnull %2) #6
  call void @llvm.lifetime.end.p0(i64 128, ptr nonnull %1) #6
  ret i32 %.09
}